target datalayout = "e-m:e-p270:32:32-p271:32:32-p272:64:64-i64:64-i128:128-f80:128-n8:16:32:64-S128"
target triple = "x86_64-pc-linux-gnu"

@hf_btavrcp_attribute_list = internal global i32 0, align 4
@hf_btavrcp_attribute = internal global i32 0, align 4
@ett_btavrcp_attribute_list = internal global i32 0, align 4

; Function Attrs: null_pointer_is_valid sspstrong uwtable
define internal i32 @dissect_attribute_id_list(ptr noundef %0, ptr noundef %1, i32 noundef %2, i32 noundef %3) #0 {
  %5 = alloca ptr, align 8
  %6 = alloca ptr, align 8
  %7 = alloca i32, align 4
  %8 = alloca i32, align 4
  %9 = alloca i32, align 4
  %10 = alloca ptr, align 8
  %11 = alloca ptr, align 8
  store ptr %0, ptr %5, align 8
  store ptr %1, ptr %6, align 8
  store i32 %2, ptr %7, align 4
  store i32 %3, ptr %8, align 4
  call void @llvm.lifetime.start.p0(i64 4, ptr %9) #9
  call void @llvm.lifetime.start.p0(i64 8, ptr %10) #9
  call void @llvm.lifetime.start.p0(i64 8, ptr %11) #9
  %12 = load ptr, ptr %6, align 8
  %13 = load i32, ptr @hf_btavrcp_attribute_list, align 4
  %14 = load ptr, ptr %5, align 8
  %15 = load i32, ptr %7, align 4
  %16 = load i32, ptr %8, align 4
  %17 = mul i32 %16, 4
  %18 = call ptr @proto_tree_add_item(ptr noundef %12, i32 noundef %13, ptr noundef %14, i32 noundef %15, i32 noundef %17, i32 noundef 0)
  store ptr %18, ptr %10, align 8
  %19 = load ptr, ptr %10, align 8
  %20 = load i32, ptr @ett_btavrcp_attribute_list, align 4
  %21 = call ptr @proto_item_add_subtree(ptr noundef %19, i32 noundef %20)
  store ptr %21, ptr %11, align 8
  store i32 0, ptr %9, align 4
  br label %22

22:                                               ; preds = %34, %4
  %23 = load i32, ptr %9, align 4
  %24 = load i32, ptr %8, align 4
  %25 = icmp ult i32 %23, %24
  br i1 %25, label %26, label %37

26:                                               ; preds = %22
  %27 = load ptr, ptr %11, align 8
  %28 = load i32, ptr @hf_btavrcp_attribute, align 4
  %29 = load ptr, ptr %5, align 8
  %30 = load i32, ptr %7, align 4
  %31 = call ptr @proto_tree_add_item(ptr noundef %27, i32 noundef %28, ptr noundef %29, i32 noundef %30, i32 noundef 4, i32 noundef 0)
  %32 = load i32, ptr %7, align 4
  %33 = add i32 %32, 4
  store i32 %33, ptr %7, align 4
  br label %34

34:                                               ; preds = %26
  %35 = load i32, ptr %9, align 4
  %36 = add i32 %35, 1
  store i32 %36, ptr %9, align 4
  br label %22, !llvm.loop !25

37:                                               ; preds = %22
  %38 = load i32, ptr %7, align 4
  call void @llvm.lifetime.end.p0(i64 8, ptr %11) #9
  call void @llvm.lifetime.end.p0(i64 8, ptr %10) #9
  call void @llvm.lifetime.end.p0(i64 4, ptr %9) #9
  ret i32 %38
}