; Function Attrs: null_pointer_is_valid sspstrong uwtable
define internal fastcc range(i32 4, 0) i32 @dissect_attribute_id_list(ptr noundef %0, ptr noundef %1, i32 noundef range(i32 9, 20) %2, i32 noundef range(i32 0, 256) %3) unnamed_addr #0 {
  %5 = load i32, ptr @hf_btavrcp_attribute_list, align 4
  %6 = shl nuw nsw i32 %3, 2
  %7 = tail call ptr @proto_tree_add_item(ptr noundef %1, i32 noundef %5, ptr noundef %0, i32 noundef %2, i32 noundef %6, i32 noundef 0)
  %8 = load i32, ptr @ett_btavrcp_attribute_list, align 4
  %9 = tail call ptr @proto_item_add_subtree(ptr noundef %7, i32 noundef %8)
  %.not = icmp eq i32 %3, 0
  br i1 %.not, label %._crit_edge, label %.lr.ph

.lr.ph:                                           ; preds = %4, %.lr.ph
  %.014 = phi i32 [ %12, %.lr.ph ], [ %2, %4 ]
  %.01213 = phi i32 [ %13, %.lr.ph ], [ 0, %4 ]
  %10 = load i32, ptr @hf_btavrcp_attribute, align 4
  %11 = tail call ptr @proto_tree_add_item(ptr noundef %9, i32 noundef %10, ptr noundef %0, i32 noundef %.014, i32 noundef 4, i32 noundef 0)
  %12 = add nuw nsw i32 %.014, 4
  %13 = add nuw nsw i32 %.01213, 1
  %exitcond.not = icmp eq i32 %13, %3
  br i1 %exitcond.not, label %._crit_edge, label %.lr.ph, !llvm.loop !8

._crit_edge:                                      ; preds = %.lr.ph, %4
  %.0.lcssa = phi i32 [ %2, %4 ], [ %12, %.lr.ph ]
  ret i32 %.0.lcssa
}